Certificate:
    Data:
        Version: 3 (0x2)
        Serial Number:
            0b:64:32:d6:94:d6:d9:6f:65:69:0c:bd:ae:9b:b2:b6:c5:0c:8a:06
        Signature Algorithm: sha256WithRSAEncryption
        Issuer: C = US, ST = California, L = LA, O = tranquil-ravine-43566, OU = tranquil-ravine-43566, CN = tranquil-ravine-43566.herokuapp.com
        Validity
            Not Before: Apr  7 14:43:49 2020 GMT
            Not After : May  7 14:43:49 2020 GMT
        Subject: C = US, ST = California, L = LA, O = tranquil-ravine-43566, OU = tranquil-ravine-43566, CN = tranquil-ravine-43566.herokuapp.com
        Subject Public Key Info:
            Public Key Algorithm: rsaEncryption
                RSA Public-Key: (2048 bit)
                Modulus:
                    00:f3:3a:60:a0:68:74:1e:71:27:dc:87:0c:97:bf:
                    91:5b:50:97:c6:c4:d7:58:3c:a9:d3:53:96:99:18:
                    46:4c:7e:2c:fb:4e:f0:e7:33:5c:2a:5b:d3:7c:1f:
                    c1:92:47:94:38:63:54:2b:6a:c8:aa:8c:c5:d6:cd:
                    0a:11:41:a3:a8:b2:25:c2:6a:36:6d:77:cd:76:a1:
                    b3:70:b3:b5:01:6a:4e:7f:07:bf:9d:c7:f5:a5:5a:
                    19:f2:fc:3d:69:3e:90:bc:26:6f:d8:dc:10:26:0c:
                    f5:08:bf:17:5c:4d:48:3b:35:24:cf:df:9f:0a:8b:
                    65:a2:c8:d3:9c:0b:4d:12:91:6c:18:26:b1:42:39:
                    1f:48:2e:50:db:4e:9b:72:39:23:70:f6:fe:30:a5:
                    25:10:7e:f2:b6:77:f2:1c:30:8a:00:55:29:f6:de:
                    c1:2d:94:dd:db:74:78:70:4a:ed:d6:d9:b4:84:cd:
                    ac:f0:80:01:78:b5:e3:ea:a0:4d:0b:01:2a:2e:9e:
                    09:48:6b:0f:a4:2f:44:89:f0:23:d5:f0:65:5c:dc:
                    89:7c:8f:6b:bb:f6:85:c5:34:c0:de:d0:fb:56:63:
                    ad:27:e7:77:24:9d:97:12:4d:54:61:58:9d:2c:c7:
                    df:51:f3:3d:0d:0b:ec:17:68:92:3d:23:e3:2d:a7:
                    c9:11
                Exponent: 65537 (0x10001)
        X509v3 extensions:
            X509v3 Subject Key Identifier: 
                CC:B4:F6:E7:21:E1:C1:A2:AC:7D:EB:35:BB:1B:30:D8:E5:73:EF:67
            X509v3 Authority Key Identifier: 
                keyid:CC:B4:F6:E7:21:E1:C1:A2:AC:7D:EB:35:BB:1B:30:D8:E5:73:EF:67

            X509v3 Basic Constraints: critical
                CA:TRUE
    Signature Algorithm: sha256WithRSAEncryption
         8e:ad:a4:ae:e3:18:17:f0:5a:1f:55:02:c4:bf:1f:d3:d7:59:
         0e:a5:45:5a:8f:0a:15:90:63:0a:dd:92:5b:9d:d7:e8:21:78:
         4f:48:a0:19:f3:14:51:fb:e3:2f:3a:ed:7e:a7:3d:2e:2d:00:
         e1:6b:a1:b4:13:5b:3b:31:0e:f9:ff:0c:1d:b6:4d:f4:6e:5a:
         57:3d:42:cf:2d:95:a4:88:b8:19:88:10:e2:b0:46:3d:29:81:
         3a:4d:01:a2:09:37:ab:03:0a:bb:55:3a:89:68:c1:82:55:d3:
         15:ee:7e:5a:e6:10:a7:8b:e7:1c:87:9e:89:e1:6f:c6:0a:bb:
         97:70:81:49:a2:a9:88:93:8f:f6:b6:7d:43:db:cc:46:bb:e1:
         9e:8f:b1:f0:48:51:d5:fc:73:25:64:d5:9f:34:e9:09:3e:57:
         0c:1f:54:d3:64:39:52:62:34:72:df:cd:5c:e8:86:a8:4e:7a:
         8f:ac:de:21:71:3d:44:8c:52:a8:9e:f9:69:18:4d:a0:60:db:
         da:e9:b9:24:99:07:68:9d:8d:54:62:67:18:56:7b:09:72:aa:
         ea:6c:81:b9:a5:39:c1:57:16:19:dd:06:9a:94:52:cc:66:db:
         8d:2c:d2:89:62:30:82:b5:5f:91:ad:da:7c:c1:16:3c:3e:17:
         97:20:6c:47
-----BEGIN CERTIFICATE-----
MIIEHTCCAwWgAwIBAgIUC2Qy1pTW2W9laQy9rpuytsUMigYwDQYJKoZIhvcNAQEL
BQAwgZ0xCzAJBgNVBAYTAlVTMRMwEQYDVQQIDApDYWxpZm9ybmlhMQswCQYDVQQH
DAJMQTEeMBwGA1UECgwVdHJhbnF1aWwtcmF2aW5lLTQzNTY2MR4wHAYDVQQLDBV0
cmFucXVpbC1yYXZpbmUtNDM1NjYxLDAqBgNVBAMMI3RyYW5xdWlsLXJhdmluZS00
MzU2Ni5oZXJva3VhcHAuY29tMB4XDTIwMDQwNzE0NDM0OVoXDTIwMDUwNzE0NDM0
OVowgZ0xCzAJBgNVBAYTAlVTMRMwEQYDVQQIDApDYWxpZm9ybmlhMQswCQYDVQQH
DAJMQTEeMBwGA1UECgwVdHJhbnF1aWwtcmF2aW5lLTQzNTY2MR4wHAYDVQQLDBV0
cmFucXVpbC1yYXZpbmUtNDM1NjYxLDAqBgNVBAMMI3RyYW5xdWlsLXJhdmluZS00
MzU2Ni5oZXJva3VhcHAuY29tMIIBIjANBgkqhkiG9w0BAQEFAAOCAQ8AMIIBCgKC
AQEA8zpgoGh0HnEn3IcMl7+RW1CXxsTXWDyp01OWmRhGTH4s+07w5zNcKlvTfB/B
kkeUOGNUK2rIqozF1s0KEUGjqLIlwmo2bXfNdqGzcLO1AWpOfwe/ncf1pVoZ8vw9
aT6QvCZv2NwQJgz1CL8XXE1IOzUkz9+fCotlosjTnAtNEpFsGCaxQjkfSC5Q206b
cjkjcPb+MKUlEH7ytnfyHDCKAFUp9t7BLZTd23R4cErt1tm0hM2s8IABeLXj6qBN
CwEqLp4JSGsPpC9EifAj1fBlXNyJfI9ru/aFxTTA3tD7VmOtJ+d3JJ2XEk1UYVid
LMffUfM9DQvsF2iSPSPjLafJEQIDAQABo1MwUTAdBgNVHQ4EFgQUzLT25yHhwaKs
fes1uxsw2OVz72cwHwYDVR0jBBgwFoAUzLT25yHhwaKsfes1uxsw2OVz72cwDwYD
VR0TAQH/BAUwAwEB/zANBgkqhkiG9w0BAQsFAAOCAQEAjq2kruMYF/BaH1UCxL8f
09dZDqVFWo8KFZBjCt2SW53X6CF4T0igGfMUUfvjLzrtfqc9Li0A4WuhtBNbOzEO
+f8MHbZN9G5aVz1Czy2VpIi4GYgQ4rBGPSmBOk0Bogk3qwMKu1U6iWjBglXTFe5+
WuYQp4vnHIeeieFvxgq7l3CBSaKpiJOP9rZ9Q9vMRrvhno+x8EhR1fxzJWTVnzTp
CT5XDB9U02Q5UmI0ct/NXOiGqE56j6zeIXE9RIxSqJ75aRhNoGDb2um5JJkHaJ2N
VGJnGFZ7CXKq6myBuaU5wVcWGd0GmpRSzGbbjSzSiWIwgrVfka3afMEWPD4XlyBs
Rw==
-----END CERTIFICATE-----
